; Function Attrs: mustprogress nofree norecurse nosync nounwind willreturn memory(read, inaccessiblemem: none) uwtable
define noundef i64 @_ZNK3net10SpdyFramer25header_encoder_table_sizeEv(ptr noundef nonnull readonly align 8 captures(none) dereferenceable(259) %0) local_unnamed_addr #16 align 2 {
  %2 = getelementptr inbounds nuw i8, ptr %0, i64 160
  %3 = load ptr, ptr %2, align 8, !tbaa !104
  %.not.i = icmp eq ptr %3, null
  br i1 %.not.i, label %7, label %4

4:                                                ; preds = %1
  %5 = getelementptr inbounds nuw i8, ptr %3, i64 216
  %6 = load i64, ptr %5, align 8, !tbaa !345
  br label %7

7:                                                ; preds = %1, %4
  %.0 = phi i64 [ %6, %4 ], [ 4096, %1 ]
  ret i64 %.0
}